target datalayout = "e-m:e-p270:32:32-p271:32:32-p272:64:64-i64:64-i128:128-f80:128-n8:16:32:64-S128"
target triple = "x86_64-pc-linux-gnu"

%struct.AVFilterContext = type { ptr, ptr, ptr, ptr, ptr, i32, ptr, ptr, i32, ptr, ptr, i32, i32, ptr, ptr, ptr, ptr, i32, ptr, i32, i32 }
%struct.CiescopeContext = type { ptr, i32, i32, i32, i32, i32, i32, float, float, i32, i32, [65536 x float], float, [3 x [3 x float]], [3 x [3 x float]], ptr, ptr }

; Function Attrs: nounwind uwtable
define internal void @filter_xyz(ptr noundef %0, ptr noundef %1, i64 noundef %2, ptr noundef %3, ptr noundef %4, i32 noundef %5, i32 noundef %6) #1 {
  %8 = alloca ptr, align 8
  %9 = alloca ptr, align 8
  %10 = alloca i64, align 8
  %11 = alloca ptr, align 8
  %12 = alloca ptr, align 8
  %13 = alloca i32, align 4
  %14 = alloca i32, align 4
  %15 = alloca ptr, align 8
  %16 = alloca ptr, align 8
  %17 = alloca float, align 4
  %18 = alloca float, align 4
  %19 = alloca float, align 4
  %20 = alloca float, align 4
  store ptr %0, ptr %8, align 8, !tbaa !4
  store ptr %1, ptr %9, align 8, !tbaa !55
  store i64 %2, ptr %10, align 8, !tbaa !59
  store ptr %3, ptr %11, align 8, !tbaa !86
  store ptr %4, ptr %12, align 8, !tbaa !86
  store i32 %5, ptr %13, align 4, !tbaa !28
  store i32 %6, ptr %14, align 4, !tbaa !28
  call void @llvm.lifetime.start.p0(i64 8, ptr %15) #8
  %21 = load ptr, ptr %8, align 8, !tbaa !4
  %22 = getelementptr inbounds nuw %struct.AVFilterContext, ptr %21, i32 0, i32 9
  %23 = load ptr, ptr %22, align 8, !tbaa !9
  store ptr %23, ptr %15, align 8, !tbaa !22
  call void @llvm.lifetime.start.p0(i64 8, ptr %16) #8
  %24 = load ptr, ptr %9, align 8, !tbaa !55
  %25 = load i64, ptr %10, align 8, !tbaa !59
  %26 = load i32, ptr %14, align 4, !tbaa !28
  %27 = sext i32 %26 to i64
  %28 = mul nsw i64 %25, %27
  %29 = getelementptr inbounds i8, ptr %24, i64 %28
  %30 = load i32, ptr %13, align 4, !tbaa !28
  %31 = mul nsw i32 %30, 6
  %32 = sext i32 %31 to i64
  %33 = getelementptr inbounds i8, ptr %29, i64 %32
  store ptr %33, ptr %16, align 8, !tbaa !60
  call void @llvm.lifetime.start.p0(i64 4, ptr %17) #8
  %34 = load ptr, ptr %15, align 8, !tbaa !22
  %35 = getelementptr inbounds nuw %struct.CiescopeContext, ptr %34, i32 0, i32 11
  %36 = load ptr, ptr %16, align 8, !tbaa !60
  %37 = getelementptr inbounds i16, ptr %36, i64 0
  %38 = load i16, ptr %37, align 2, !tbaa !66
  %39 = zext i16 %38 to i64
  %40 = getelementptr inbounds nuw [65536 x float], ptr %35, i64 0, i64 %39
  %41 = load float, ptr %40, align 4, !tbaa !65
  store float %41, ptr %17, align 4, !tbaa !65
  call void @llvm.lifetime.start.p0(i64 4, ptr %18) #8
  %42 = load ptr, ptr %15, align 8, !tbaa !22
  %43 = getelementptr inbounds nuw %struct.CiescopeContext, ptr %42, i32 0, i32 11
  %44 = load ptr, ptr %16, align 8, !tbaa !60
  %45 = getelementptr inbounds i16, ptr %44, i64 1
  %46 = load i16, ptr %45, align 2, !tbaa !66
  %47 = zext i16 %46 to i64
  %48 = getelementptr inbounds nuw [65536 x float], ptr %43, i64 0, i64 %47
  %49 = load float, ptr %48, align 4, !tbaa !65
  store float %49, ptr %18, align 4, !tbaa !65
  call void @llvm.lifetime.start.p0(i64 4, ptr %19) #8
  %50 = load ptr, ptr %15, align 8, !tbaa !22
  %51 = getelementptr inbounds nuw %struct.CiescopeContext, ptr %50, i32 0, i32 11
  %52 = load ptr, ptr %16, align 8, !tbaa !60
  %53 = getelementptr inbounds i16, ptr %52, i64 2
  %54 = load i16, ptr %53, align 2, !tbaa !66
  %55 = zext i16 %54 to i64
  %56 = getelementptr inbounds nuw [65536 x float], ptr %51, i64 0, i64 %55
  %57 = load float, ptr %56, align 4, !tbaa !65
  store float %57, ptr %19, align 4, !tbaa !65
  call void @llvm.lifetime.start.p0(i64 4, ptr %20) #8
  %58 = load float, ptr %17, align 4, !tbaa !65
  %59 = load float, ptr %18, align 4, !tbaa !65
  %60 = fadd nsz float %58, %59
  %61 = load float, ptr %19, align 4, !tbaa !65
  %62 = fadd nsz float %60, %61
  store float %62, ptr %20, align 4, !tbaa !65
  %63 = load float, ptr %20, align 4, !tbaa !65
  %64 = fcmp nsz oeq float %63, 0.000000e+00
  br i1 %64, label %65, label %66

65:                                               ; preds = %7
  store float 1.000000e+00, ptr %20, align 4, !tbaa !65
  br label %66

66:                                               ; preds = %65, %7
  %67 = load float, ptr %17, align 4, !tbaa !65
  %68 = load float, ptr %20, align 4, !tbaa !65
  %69 = fdiv nsz float %67, %68
  %70 = load ptr, ptr %11, align 8, !tbaa !86
  store float %69, ptr %70, align 4, !tbaa !65
  %71 = load float, ptr %18, align 4, !tbaa !65
  %72 = load float, ptr %20, align 4, !tbaa !65
  %73 = fdiv nsz float %71, %72
  %74 = load ptr, ptr %12, align 8, !tbaa !86
  store float %73, ptr %74, align 4, !tbaa !65
  call void @llvm.lifetime.end.p0(i64 4, ptr %20) #8
  call void @llvm.lifetime.end.p0(i64 4, ptr %19) #8
  call void @llvm.lifetime.end.p0(i64 4, ptr %18) #8
  call void @llvm.lifetime.end.p0(i64 4, ptr %17) #8
  call void @llvm.lifetime.end.p0(i64 8, ptr %16) #8
  call void @llvm.lifetime.end.p0(i64 8, ptr %15) #8
  ret void
}