; Function Attrs: mustprogress nofree norecurse nosync nounwind willreturn memory(read, argmem: readwrite, inaccessiblemem: none) uwtable
define internal void @filter_xyz(ptr noundef readonly captures(none) %0, ptr noundef readonly captures(none) %1, i64 noundef %2, ptr noundef writeonly captures(none) initializes((0, 4)) %3, ptr noundef writeonly captures(none) initializes((0, 4)) %4, i32 noundef %5, i32 noundef %6) #9 {
  %8 = getelementptr inbounds nuw i8, ptr %0, i64 72
  %9 = load ptr, ptr %8, align 8, !tbaa !4
  %10 = sext i32 %6 to i64
  %11 = mul nsw i64 %2, %10
  %12 = getelementptr inbounds i8, ptr %1, i64 %11
  %13 = mul nsw i32 %5, 6
  %14 = sext i32 %13 to i64
  %15 = getelementptr inbounds i8, ptr %12, i64 %14
  %16 = getelementptr inbounds nuw i8, ptr %9, i64 48
  %17 = load i16, ptr %15, align 2, !tbaa !60
  %18 = zext i16 %17 to i64
  %19 = getelementptr inbounds nuw [65536 x float], ptr %16, i64 0, i64 %18
  %20 = load float, ptr %19, align 4, !tbaa !54
  %21 = getelementptr inbounds nuw i8, ptr %15, i64 2
  %22 = load i16, ptr %21, align 2, !tbaa !60
  %23 = zext i16 %22 to i64
  %24 = getelementptr inbounds nuw [65536 x float], ptr %16, i64 0, i64 %23
  %25 = load float, ptr %24, align 4, !tbaa !54
  %26 = getelementptr inbounds nuw i8, ptr %15, i64 4
  %27 = load i16, ptr %26, align 2, !tbaa !60
  %28 = zext i16 %27 to i64
  %29 = getelementptr inbounds nuw [65536 x float], ptr %16, i64 0, i64 %28
  %30 = load float, ptr %29, align 4, !tbaa !54
  %31 = fadd nsz float %20, %25
  %32 = fadd nsz float %31, %30
  %33 = fcmp nsz oeq float %32, 0.000000e+00
  %.0 = select nsz i1 %33, float 1.000000e+00, float %32
  %34 = fdiv nsz float %20, %.0
  store float %34, ptr %3, align 4, !tbaa !54
  %35 = fdiv nsz float %25, %.0
  store float %35, ptr %4, align 4, !tbaa !54
  ret void
}